; Function Attrs: mustprogress nofree norecurse nosync nounwind willreturn memory(argmem: read) uwtable
define internal range(i32 -1, 2) i32 @float8_qsort_cmp(ptr noundef readonly captures(none) %0, ptr noundef readonly captures(none) %1, ptr readnone captures(none) %2) #4 {
  %4 = load double, ptr %0, align 8
  %5 = load double, ptr %1, align 8
  %6 = fcmp olt double %4, %5
  %7 = fcmp une double %4, %5
  %. = zext i1 %7 to i32
  %.0 = select i1 %6, i32 -1, i32 %.
  ret i32 %.0
}